; Function Attrs: mustprogress noreturn uwtable
define void @_ZN2cv11large_kinfu10LargeKinfu6createERKNS_3PtrINS0_6ParamsEEE(ptr dead_on_unwind noalias nocapture readnone sret(%"struct.cv::Ptr.21") align 8 %0, ptr nocapture noundef nonnull readnone align 8 dereferenceable(16) %1) local_unnamed_addr #8 align 2 personality ptr @__gxx_personality_v0 {
  %3 = alloca %"class.std::__cxx11::basic_string", align 8
  %4 = alloca %"class.std::allocator.12", align 1
  call void @_ZNSaIcEC1Ev(ptr noundef nonnull align 1 dereferenceable(1) %4) #23
  invoke void @_ZNSt7__cxx1112basic_stringIcSt11char_traitsIcESaIcEEC1EPKcRKS3_(ptr noundef nonnull align 8 dereferenceable(32) %3, ptr noundef nonnull @.str.3, ptr noundef nonnull align 1 dereferenceable(1) %4)
          to label %5 unwind label %7

5:                                                ; preds = %2
  invoke void @_ZN2cv5errorEiRKNSt7__cxx1112basic_stringIcSt11char_traitsIcESaIcEEEPKcS9_i(i32 noundef -213, ptr noundef nonnull align 8 dereferenceable(32) %3, ptr noundef nonnull @__func__._ZN2cv11large_kinfu10LargeKinfu6createERKNS_3PtrINS0_6ParamsEEE, ptr noundef nonnull @.str.2, i32 noundef 366) #24
          to label %6 unwind label %9

6:                                                ; preds = %5
  unreachable

7:                                                ; preds = %2
  %8 = landingpad { ptr, i32 }
          cleanup
  br label %11

9:                                                ; preds = %5
  %10 = landingpad { ptr, i32 }
          cleanup
  call void @_ZNSt7__cxx1112basic_stringIcSt11char_traitsIcESaIcEED1Ev(ptr noundef nonnull align 8 dereferenceable(32) %3) #23
  br label %11

11:                                               ; preds = %9, %7
  %.pn = phi { ptr, i32 } [ %10, %9 ], [ %8, %7 ]
  call void @_ZNSaIcED1Ev(ptr noundef nonnull align 1 dereferenceable(1) %4) #23
  resume { ptr, i32 } %.pn
}